target datalayout = "e-m:e-p270:32:32-p271:32:32-p272:64:64-i64:64-i128:128-f80:128-n8:16:32:64-S128"
target triple = "x86_64-pc-linux-gnu"

%struct._ir_insn = type { %struct.anon, %union.anon.5 }
%struct.anon = type { %union.anon, %union.anon.4 }
%union.anon = type { i32 }
%union.anon.4 = type { i32 }
%union.anon.5 = type { %union._ir_val }
%union._ir_val = type { double }
%struct._ir_ctx = type { ptr, i32, i32, i32, i32, i32, i32, i32, i32, i32, i32, %struct._ir_insn, ptr, ptr, ptr, i32, i32, i32, ptr, ptr, ptr, ptr, ptr, i32, i32, i64, i32, i32, i32, i64, i32, i32, i32, i32, ptr, ptr, ptr, ptr, ptr, ptr, %union.anon.13, ptr, i32, i32, i32, i64, i32, i32, i32, ptr, ptr, ptr, ptr, %struct._ir_strtab, [61 x i32], [14 x i32] }
%union.anon.13 = type { ptr }
%struct._ir_strtab = type { ptr, i32, i32, i32, i32, ptr, i32, i32 }

; Function Attrs: nounwind uwtable
define hidden void @ir_init(ptr noundef %0, i32 noundef %1, i32 noundef %2, i32 noundef %3) #0 {
  %5 = alloca ptr, align 8
  %6 = alloca i32, align 4
  %7 = alloca i32, align 4
  %8 = alloca i32, align 4
  %9 = alloca ptr, align 8
  store ptr %0, ptr %5, align 8
  store i32 %1, ptr %6, align 4
  store i32 %2, ptr %7, align 4
  store i32 %3, ptr %8, align 4
  %10 = load ptr, ptr %5, align 8
  call void @llvm.memset.p0.i64(ptr align 8 %10, i8 0, i64 680, i1 false)
  %11 = load ptr, ptr %5, align 8
  %12 = getelementptr inbounds %struct._ir_ctx, ptr %11, i32 0, i32 1
  store i32 1, ptr %12, align 8
  %13 = load i32, ptr %8, align 4
  %14 = load ptr, ptr %5, align 8
  %15 = getelementptr inbounds %struct._ir_ctx, ptr %14, i32 0, i32 2
  store i32 %13, ptr %15, align 4
  %16 = load ptr, ptr %5, align 8
  %17 = getelementptr inbounds %struct._ir_ctx, ptr %16, i32 0, i32 3
  store i32 4, ptr %17, align 8
  %18 = load i32, ptr %7, align 4
  %19 = load ptr, ptr %5, align 8
  %20 = getelementptr inbounds %struct._ir_ctx, ptr %19, i32 0, i32 4
  store i32 %18, ptr %20, align 4
  %21 = load ptr, ptr %5, align 8
  %22 = getelementptr inbounds %struct._ir_ctx, ptr %21, i32 0, i32 10
  store i32 1, ptr %22, align 4
  %23 = load i32, ptr %6, align 4
  %24 = load ptr, ptr %5, align 8
  %25 = getelementptr inbounds %struct._ir_ctx, ptr %24, i32 0, i32 5
  store i32 %23, ptr %25, align 8
  %26 = load ptr, ptr %5, align 8
  %27 = getelementptr inbounds %struct._ir_ctx, ptr %26, i32 0, i32 24
  store i32 -1, ptr %27, align 4
  %28 = load ptr, ptr %5, align 8
  %29 = getelementptr inbounds %struct._ir_ctx, ptr %28, i32 0, i32 27
  store i32 -1, ptr %29, align 4
  %30 = load i32, ptr %7, align 4
  %31 = load i32, ptr %8, align 4
  %32 = add nsw i32 %30, %31
  %33 = sext i32 %32 to i64
  %34 = mul i64 %33, 16
  %35 = call i1 @llvm.is.constant.i64(i64 %34)
  br i1 %35, label %36, label %389

36:                                               ; preds = %4
  %37 = load i32, ptr %7, align 4
  %38 = load i32, ptr %8, align 4
  %39 = add nsw i32 %37, %38
  %40 = sext i32 %39 to i64
  %41 = mul i64 %40, 16
  %42 = icmp ule i64 %41, 8
  br i1 %42, label %43, label %45

43:                                               ; preds = %36
  %44 = call noalias ptr @_emalloc_8()
  br label %387

45:                                               ; preds = %36
  %46 = load i32, ptr %7, align 4
  %47 = load i32, ptr %8, align 4
  %48 = add nsw i32 %46, %47
  %49 = sext i32 %48 to i64
  %50 = mul i64 %49, 16
  %51 = icmp ule i64 %50, 16
  br i1 %51, label %52, label %54

52:                                               ; preds = %45
  %53 = call noalias ptr @_emalloc_16()
  br label %385

54:                                               ; preds = %45
  %55 = load i32, ptr %7, align 4
  %56 = load i32, ptr %8, align 4
  %57 = add nsw i32 %55, %56
  %58 = sext i32 %57 to i64
  %59 = mul i64 %58, 16
  %60 = icmp ule i64 %59, 24
  br i1 %60, label %61, label %63

61:                                               ; preds = %54
  %62 = call noalias ptr @_emalloc_24()
  br label %383

63:                                               ; preds = %54
  %64 = load i32, ptr %7, align 4
  %65 = load i32, ptr %8, align 4
  %66 = add nsw i32 %64, %65
  %67 = sext i32 %66 to i64
  %68 = mul i64 %67, 16
  %69 = icmp ule i64 %68, 32
  br i1 %69, label %70, label %72

70:                                               ; preds = %63
  %71 = call noalias ptr @_emalloc_32()
  br label %381

72:                                               ; preds = %63
  %73 = load i32, ptr %7, align 4
  %74 = load i32, ptr %8, align 4
  %75 = add nsw i32 %73, %74
  %76 = sext i32 %75 to i64
  %77 = mul i64 %76, 16
  %78 = icmp ule i64 %77, 40
  br i1 %78, label %79, label %81

79:                                               ; preds = %72
  %80 = call noalias ptr @_emalloc_40()
  br label %379

81:                                               ; preds = %72
  %82 = load i32, ptr %7, align 4
  %83 = load i32, ptr %8, align 4
  %84 = add nsw i32 %82, %83
  %85 = sext i32 %84 to i64
  %86 = mul i64 %85, 16
  %87 = icmp ule i64 %86, 48
  br i1 %87, label %88, label %90

88:                                               ; preds = %81
  %89 = call noalias ptr @_emalloc_48()
  br label %377

90:                                               ; preds = %81
  %91 = load i32, ptr %7, align 4
  %92 = load i32, ptr %8, align 4
  %93 = add nsw i32 %91, %92
  %94 = sext i32 %93 to i64
  %95 = mul i64 %94, 16
  %96 = icmp ule i64 %95, 56
  br i1 %96, label %97, label %99

97:                                               ; preds = %90
  %98 = call noalias ptr @_emalloc_56()
  br label %375

99:                                               ; preds = %90
  %100 = load i32, ptr %7, align 4
  %101 = load i32, ptr %8, align 4
  %102 = add nsw i32 %100, %101
  %103 = sext i32 %102 to i64
  %104 = mul i64 %103, 16
  %105 = icmp ule i64 %104, 64
  br i1 %105, label %106, label %108

106:                                              ; preds = %99
  %107 = call noalias ptr @_emalloc_64()
  br label %373

108:                                              ; preds = %99
  %109 = load i32, ptr %7, align 4
  %110 = load i32, ptr %8, align 4
  %111 = add nsw i32 %109, %110
  %112 = sext i32 %111 to i64
  %113 = mul i64 %112, 16
  %114 = icmp ule i64 %113, 80
  br i1 %114, label %115, label %117

115:                                              ; preds = %108
  %116 = call noalias ptr @_emalloc_80()
  br label %371

117:                                              ; preds = %108
  %118 = load i32, ptr %7, align 4
  %119 = load i32, ptr %8, align 4
  %120 = add nsw i32 %118, %119
  %121 = sext i32 %120 to i64
  %122 = mul i64 %121, 16
  %123 = icmp ule i64 %122, 96
  br i1 %123, label %124, label %126

124:                                              ; preds = %117
  %125 = call noalias ptr @_emalloc_96()
  br label %369

126:                                              ; preds = %117
  %127 = load i32, ptr %7, align 4
  %128 = load i32, ptr %8, align 4
  %129 = add nsw i32 %127, %128
  %130 = sext i32 %129 to i64
  %131 = mul i64 %130, 16
  %132 = icmp ule i64 %131, 112
  br i1 %132, label %133, label %135

133:                                              ; preds = %126
  %134 = call noalias ptr @_emalloc_112()
  br label %367

135:                                              ; preds = %126
  %136 = load i32, ptr %7, align 4
  %137 = load i32, ptr %8, align 4
  %138 = add nsw i32 %136, %137
  %139 = sext i32 %138 to i64
  %140 = mul i64 %139, 16
  %141 = icmp ule i64 %140, 128
  br i1 %141, label %142, label %144

142:                                              ; preds = %135
  %143 = call noalias ptr @_emalloc_128()
  br label %365

144:                                              ; preds = %135
  %145 = load i32, ptr %7, align 4
  %146 = load i32, ptr %8, align 4
  %147 = add nsw i32 %145, %146
  %148 = sext i32 %147 to i64
  %149 = mul i64 %148, 16
  %150 = icmp ule i64 %149, 160
  br i1 %150, label %151, label %153

151:                                              ; preds = %144
  %152 = call noalias ptr @_emalloc_160()
  br label %363

153:                                              ; preds = %144
  %154 = load i32, ptr %7, align 4
  %155 = load i32, ptr %8, align 4
  %156 = add nsw i32 %154, %155
  %157 = sext i32 %156 to i64
  %158 = mul i64 %157, 16
  %159 = icmp ule i64 %158, 192
  br i1 %159, label %160, label %162

160:                                              ; preds = %153
  %161 = call noalias ptr @_emalloc_192()
  br label %361

162:                                              ; preds = %153
  %163 = load i32, ptr %7, align 4
  %164 = load i32, ptr %8, align 4
  %165 = add nsw i32 %163, %164
  %166 = sext i32 %165 to i64
  %167 = mul i64 %166, 16
  %168 = icmp ule i64 %167, 224
  br i1 %168, label %169, label %171

169:                                              ; preds = %162
  %170 = call noalias ptr @_emalloc_224()
  br label %359

171:                                              ; preds = %162
  %172 = load i32, ptr %7, align 4
  %173 = load i32, ptr %8, align 4
  %174 = add nsw i32 %172, %173
  %175 = sext i32 %174 to i64
  %176 = mul i64 %175, 16
  %177 = icmp ule i64 %176, 256
  br i1 %177, label %178, label %180

178:                                              ; preds = %171
  %179 = call noalias ptr @_emalloc_256()
  br label %357

180:                                              ; preds = %171
  %181 = load i32, ptr %7, align 4
  %182 = load i32, ptr %8, align 4
  %183 = add nsw i32 %181, %182
  %184 = sext i32 %183 to i64
  %185 = mul i64 %184, 16
  %186 = icmp ule i64 %185, 320
  br i1 %186, label %187, label %189

187:                                              ; preds = %180
  %188 = call noalias ptr @_emalloc_320()
  br label %355

189:                                              ; preds = %180
  %190 = load i32, ptr %7, align 4
  %191 = load i32, ptr %8, align 4
  %192 = add nsw i32 %190, %191
  %193 = sext i32 %192 to i64
  %194 = mul i64 %193, 16
  %195 = icmp ule i64 %194, 384
  br i1 %195, label %196, label %198

196:                                              ; preds = %189
  %197 = call noalias ptr @_emalloc_384()
  br label %353

198:                                              ; preds = %189
  %199 = load i32, ptr %7, align 4
  %200 = load i32, ptr %8, align 4
  %201 = add nsw i32 %199, %200
  %202 = sext i32 %201 to i64
  %203 = mul i64 %202, 16
  %204 = icmp ule i64 %203, 448
  br i1 %204, label %205, label %207

205:                                              ; preds = %198
  %206 = call noalias ptr @_emalloc_448()
  br label %351

207:                                              ; preds = %198
  %208 = load i32, ptr %7, align 4
  %209 = load i32, ptr %8, align 4
  %210 = add nsw i32 %208, %209
  %211 = sext i32 %210 to i64
  %212 = mul i64 %211, 16
  %213 = icmp ule i64 %212, 512
  br i1 %213, label %214, label %216

214:                                              ; preds = %207
  %215 = call noalias ptr @_emalloc_512()
  br label %349

216:                                              ; preds = %207
  %217 = load i32, ptr %7, align 4
  %218 = load i32, ptr %8, align 4
  %219 = add nsw i32 %217, %218
  %220 = sext i32 %219 to i64
  %221 = mul i64 %220, 16
  %222 = icmp ule i64 %221, 640
  br i1 %222, label %223, label %225

223:                                              ; preds = %216
  %224 = call noalias ptr @_emalloc_640()
  br label %347

225:                                              ; preds = %216
  %226 = load i32, ptr %7, align 4
  %227 = load i32, ptr %8, align 4
  %228 = add nsw i32 %226, %227
  %229 = sext i32 %228 to i64
  %230 = mul i64 %229, 16
  %231 = icmp ule i64 %230, 768
  br i1 %231, label %232, label %234

232:                                              ; preds = %225
  %233 = call noalias ptr @_emalloc_768()
  br label %345

234:                                              ; preds = %225
  %235 = load i32, ptr %7, align 4
  %236 = load i32, ptr %8, align 4
  %237 = add nsw i32 %235, %236
  %238 = sext i32 %237 to i64
  %239 = mul i64 %238, 16
  %240 = icmp ule i64 %239, 896
  br i1 %240, label %241, label %243

241:                                              ; preds = %234
  %242 = call noalias ptr @_emalloc_896()
  br label %343

243:                                              ; preds = %234
  %244 = load i32, ptr %7, align 4
  %245 = load i32, ptr %8, align 4
  %246 = add nsw i32 %244, %245
  %247 = sext i32 %246 to i64
  %248 = mul i64 %247, 16
  %249 = icmp ule i64 %248, 1024
  br i1 %249, label %250, label %252

250:                                              ; preds = %243
  %251 = call noalias ptr @_emalloc_1024()
  br label %341

252:                                              ; preds = %243
  %253 = load i32, ptr %7, align 4
  %254 = load i32, ptr %8, align 4
  %255 = add nsw i32 %253, %254
  %256 = sext i32 %255 to i64
  %257 = mul i64 %256, 16
  %258 = icmp ule i64 %257, 1280
  br i1 %258, label %259, label %261

259:                                              ; preds = %252
  %260 = call noalias ptr @_emalloc_1280()
  br label %339

261:                                              ; preds = %252
  %262 = load i32, ptr %7, align 4
  %263 = load i32, ptr %8, align 4
  %264 = add nsw i32 %262, %263
  %265 = sext i32 %264 to i64
  %266 = mul i64 %265, 16
  %267 = icmp ule i64 %266, 1536
  br i1 %267, label %268, label %270

268:                                              ; preds = %261
  %269 = call noalias ptr @_emalloc_1536()
  br label %337

270:                                              ; preds = %261
  %271 = load i32, ptr %7, align 4
  %272 = load i32, ptr %8, align 4
  %273 = add nsw i32 %271, %272
  %274 = sext i32 %273 to i64
  %275 = mul i64 %274, 16
  %276 = icmp ule i64 %275, 1792
  br i1 %276, label %277, label %279

277:                                              ; preds = %270
  %278 = call noalias ptr @_emalloc_1792()
  br label %335

279:                                              ; preds = %270
  %280 = load i32, ptr %7, align 4
  %281 = load i32, ptr %8, align 4
  %282 = add nsw i32 %280, %281
  %283 = sext i32 %282 to i64
  %284 = mul i64 %283, 16
  %285 = icmp ule i64 %284, 2048
  br i1 %285, label %286, label %288

286:                                              ; preds = %279
  %287 = call noalias ptr @_emalloc_2048()
  br label %333

288:                                              ; preds = %279
  %289 = load i32, ptr %7, align 4
  %290 = load i32, ptr %8, align 4
  %291 = add nsw i32 %289, %290
  %292 = sext i32 %291 to i64
  %293 = mul i64 %292, 16
  %294 = icmp ule i64 %293, 2560
  br i1 %294, label %295, label %297

295:                                              ; preds = %288
  %296 = call noalias ptr @_emalloc_2560()
  br label %331

297:                                              ; preds = %288
  %298 = load i32, ptr %7, align 4
  %299 = load i32, ptr %8, align 4
  %300 = add nsw i32 %298, %299
  %301 = sext i32 %300 to i64
  %302 = mul i64 %301, 16
  %303 = icmp ule i64 %302, 3072
  br i1 %303, label %304, label %306

304:                                              ; preds = %297
  %305 = call noalias ptr @_emalloc_3072()
  br label %329

306:                                              ; preds = %297
  %307 = load i32, ptr %7, align 4
  %308 = load i32, ptr %8, align 4
  %309 = add nsw i32 %307, %308
  %310 = sext i32 %309 to i64
  %311 = mul i64 %310, 16
  %312 = icmp ule i64 %311, 2093056
  br i1 %312, label %313, label %320

313:                                              ; preds = %306
  %314 = load i32, ptr %7, align 4
  %315 = load i32, ptr %8, align 4
  %316 = add nsw i32 %314, %315
  %317 = sext i32 %316 to i64
  %318 = mul i64 %317, 16
  %319 = call noalias ptr @_emalloc_large(i64 noundef %318) #12
  br label %327

320:                                              ; preds = %306
  %321 = load i32, ptr %7, align 4
  %322 = load i32, ptr %8, align 4
  %323 = add nsw i32 %321, %322
  %324 = sext i32 %323 to i64
  %325 = mul i64 %324, 16
  %326 = call noalias ptr @_emalloc_huge(i64 noundef %325) #12
  br label %327

327:                                              ; preds = %320, %313
  %328 = phi ptr [ %319, %313 ], [ %326, %320 ]
  br label %329

329:                                              ; preds = %327, %304
  %330 = phi ptr [ %305, %304 ], [ %328, %327 ]
  br label %331

331:                                              ; preds = %329, %295
  %332 = phi ptr [ %296, %295 ], [ %330, %329 ]
  br label %333

333:                                              ; preds = %331, %286
  %334 = phi ptr [ %287, %286 ], [ %332, %331 ]
  br label %335

335:                                              ; preds = %333, %277
  %336 = phi ptr [ %278, %277 ], [ %334, %333 ]
  br label %337

337:                                              ; preds = %335, %268
  %338 = phi ptr [ %269, %268 ], [ %336, %335 ]
  br label %339

339:                                              ; preds = %337, %259
  %340 = phi ptr [ %260, %259 ], [ %338, %337 ]
  br label %341

341:                                              ; preds = %339, %250
  %342 = phi ptr [ %251, %250 ], [ %340, %339 ]
  br label %343

343:                                              ; preds = %341, %241
  %344 = phi ptr [ %242, %241 ], [ %342, %341 ]
  br label %345

345:                                              ; preds = %343, %232
  %346 = phi ptr [ %233, %232 ], [ %344, %343 ]
  br label %347

347:                                              ; preds = %345, %223
  %348 = phi ptr [ %224, %223 ], [ %346, %345 ]
  br label %349

349:                                              ; preds = %347, %214
  %350 = phi ptr [ %215, %214 ], [ %348, %347 ]
  br label %351

351:                                              ; preds = %349, %205
  %352 = phi ptr [ %206, %205 ], [ %350, %349 ]
  br label %353

353:                                              ; preds = %351, %196
  %354 = phi ptr [ %197, %196 ], [ %352, %351 ]
  br label %355

355:                                              ; preds = %353, %187
  %356 = phi ptr [ %188, %187 ], [ %354, %353 ]
  br label %357

357:                                              ; preds = %355, %178
  %358 = phi ptr [ %179, %178 ], [ %356, %355 ]
  br label %359

359:                                              ; preds = %357, %169
  %360 = phi ptr [ %170, %169 ], [ %358, %357 ]
  br label %361

361:                                              ; preds = %359, %160
  %362 = phi ptr [ %161, %160 ], [ %360, %359 ]
  br label %363

363:                                              ; preds = %361, %151
  %364 = phi ptr [ %152, %151 ], [ %362, %361 ]
  br label %365

365:                                              ; preds = %363, %142
  %366 = phi ptr [ %143, %142 ], [ %364, %363 ]
  br label %367

367:                                              ; preds = %365, %133
  %368 = phi ptr [ %134, %133 ], [ %366, %365 ]
  br label %369

369:                                              ; preds = %367, %124
  %370 = phi ptr [ %125, %124 ], [ %368, %367 ]
  br label %371

371:                                              ; preds = %369, %115
  %372 = phi ptr [ %116, %115 ], [ %370, %369 ]
  br label %373

373:                                              ; preds = %371, %106
  %374 = phi ptr [ %107, %106 ], [ %372, %371 ]
  br label %375

375:                                              ; preds = %373, %97
  %376 = phi ptr [ %98, %97 ], [ %374, %373 ]
  br label %377

377:                                              ; preds = %375, %88
  %378 = phi ptr [ %89, %88 ], [ %376, %375 ]
  br label %379

379:                                              ; preds = %377, %79
  %380 = phi ptr [ %80, %79 ], [ %378, %377 ]
  br label %381

381:                                              ; preds = %379, %70
  %382 = phi ptr [ %71, %70 ], [ %380, %379 ]
  br label %383

383:                                              ; preds = %381, %61
  %384 = phi ptr [ %62, %61 ], [ %382, %381 ]
  br label %385

385:                                              ; preds = %383, %52
  %386 = phi ptr [ %53, %52 ], [ %384, %383 ]
  br label %387

387:                                              ; preds = %385, %43
  %388 = phi ptr [ %44, %43 ], [ %386, %385 ]
  br label %396

389:                                              ; preds = %4
  %390 = load i32, ptr %7, align 4
  %391 = load i32, ptr %8, align 4
  %392 = add nsw i32 %390, %391
  %393 = sext i32 %392 to i64
  %394 = mul i64 %393, 16
  %395 = call noalias ptr @_emalloc(i64 noundef %394) #12
  br label %396

396:                                              ; preds = %389, %387
  %397 = phi ptr [ %388, %387 ], [ %395, %389 ]
  store ptr %397, ptr %9, align 8
  %398 = load ptr, ptr %9, align 8
  %399 = load i32, ptr %7, align 4
  %400 = sext i32 %399 to i64
  %401 = getelementptr inbounds %struct._ir_insn, ptr %398, i64 %400
  %402 = load ptr, ptr %5, align 8
  %403 = getelementptr inbounds %struct._ir_ctx, ptr %402, i32 0, i32 0
  store ptr %401, ptr %403, align 8
  %404 = load ptr, ptr %5, align 8
  %405 = getelementptr inbounds %struct._ir_ctx, ptr %404, i32 0, i32 0
  %406 = load ptr, ptr %405, align 8
  %407 = getelementptr inbounds %struct._ir_insn, ptr %406, i64 0
  %408 = getelementptr inbounds %struct._ir_insn, ptr %407, i32 0, i32 0
  %409 = getelementptr inbounds %struct.anon, ptr %408, i32 0, i32 0
  store i32 0, ptr %409, align 8
  %410 = load ptr, ptr %5, align 8
  %411 = getelementptr inbounds %struct._ir_ctx, ptr %410, i32 0, i32 0
  %412 = load ptr, ptr %411, align 8
  %413 = getelementptr inbounds %struct._ir_insn, ptr %412, i64 -1
  %414 = getelementptr inbounds %struct._ir_insn, ptr %413, i32 0, i32 0
  %415 = getelementptr inbounds %struct.anon, ptr %414, i32 0, i32 0
  store i32 1542, ptr %415, align 8
  %416 = load ptr, ptr %5, align 8
  %417 = getelementptr inbounds %struct._ir_ctx, ptr %416, i32 0, i32 0
  %418 = load ptr, ptr %417, align 8
  %419 = getelementptr inbounds %struct._ir_insn, ptr %418, i64 -1
  %420 = getelementptr inbounds %struct._ir_insn, ptr %419, i32 0, i32 1
  store i64 0, ptr %420, align 8
  %421 = load ptr, ptr %5, align 8
  %422 = getelementptr inbounds %struct._ir_ctx, ptr %421, i32 0, i32 0
  %423 = load ptr, ptr %422, align 8
  %424 = getelementptr inbounds %struct._ir_insn, ptr %423, i64 -2
  %425 = getelementptr inbounds %struct._ir_insn, ptr %424, i32 0, i32 0
  %426 = getelementptr inbounds %struct.anon, ptr %425, i32 0, i32 0
  store i32 257, ptr %426, align 8
  %427 = load ptr, ptr %5, align 8
  %428 = getelementptr inbounds %struct._ir_ctx, ptr %427, i32 0, i32 0
  %429 = load ptr, ptr %428, align 8
  %430 = getelementptr inbounds %struct._ir_insn, ptr %429, i64 -2
  %431 = getelementptr inbounds %struct._ir_insn, ptr %430, i32 0, i32 1
  store i64 0, ptr %431, align 8
  %432 = load ptr, ptr %5, align 8
  %433 = getelementptr inbounds %struct._ir_ctx, ptr %432, i32 0, i32 0
  %434 = load ptr, ptr %433, align 8
  %435 = getelementptr inbounds %struct._ir_insn, ptr %434, i64 -3
  %436 = getelementptr inbounds %struct._ir_insn, ptr %435, i32 0, i32 0
  %437 = getelementptr inbounds %struct.anon, ptr %436, i32 0, i32 0
  store i32 257, ptr %437, align 8
  %438 = load ptr, ptr %5, align 8
  %439 = getelementptr inbounds %struct._ir_ctx, ptr %438, i32 0, i32 0
  %440 = load ptr, ptr %439, align 8
  %441 = getelementptr inbounds %struct._ir_insn, ptr %440, i64 -3
  %442 = getelementptr inbounds %struct._ir_insn, ptr %441, i32 0, i32 1
  store i64 1, ptr %442, align 8
  ret void
}