; Function Attrs: nounwind uwtable
define hidden void @ir_init(ptr nocapture noundef writeonly %0, i32 noundef %1, i32 noundef %2, i32 noundef %3) local_unnamed_addr #0 {
  tail call void @llvm.memset.p0.i64(ptr noundef nonnull align 8 dereferenceable(680) %0, i8 0, i64 680, i1 false)
  %5 = getelementptr inbounds i8, ptr %0, i64 8
  store i32 1, ptr %5, align 8
  %6 = getelementptr inbounds i8, ptr %0, i64 12
  store i32 %3, ptr %6, align 4
  %7 = getelementptr inbounds i8, ptr %0, i64 16
  store i32 4, ptr %7, align 8
  %8 = getelementptr inbounds i8, ptr %0, i64 20
  store i32 %2, ptr %8, align 4
  %9 = getelementptr inbounds i8, ptr %0, i64 44
  store i32 1, ptr %9, align 4
  %10 = getelementptr inbounds i8, ptr %0, i64 24
  store i32 %1, ptr %10, align 8
  %11 = getelementptr inbounds i8, ptr %0, i64 148
  store i32 -1, ptr %11, align 4
  %12 = getelementptr inbounds i8, ptr %0, i64 164
  store i32 -1, ptr %12, align 4
  %13 = add nsw i32 %3, %2
  %14 = sext i32 %13 to i64
  %15 = shl nsw i64 %14, 4
  %16 = tail call noalias ptr @_emalloc(i64 noundef %15) #23
  %17 = sext i32 %2 to i64
  %18 = getelementptr inbounds %struct._ir_insn, ptr %16, i64 %17
  store ptr %18, ptr %0, align 8
  store i32 0, ptr %18, align 8
  %19 = getelementptr inbounds i8, ptr %18, i64 -16
  store i32 1542, ptr %19, align 8
  %20 = getelementptr inbounds i8, ptr %18, i64 -8
  store i64 0, ptr %20, align 8
  %21 = getelementptr inbounds i8, ptr %18, i64 -32
  store i32 257, ptr %21, align 8
  %22 = getelementptr inbounds i8, ptr %18, i64 -24
  store i64 0, ptr %22, align 8
  %23 = getelementptr inbounds i8, ptr %18, i64 -48
  store i32 257, ptr %23, align 8
  %24 = getelementptr inbounds i8, ptr %18, i64 -40
  store i64 1, ptr %24, align 8
  ret void
}